; Function Attrs: mustprogress uwtable
define dso_local noundef zeroext i1 @_ZN4Json6Reader18addErrorAndRecoverERKNSt7__cxx1112basic_stringIcSt11char_traitsIcESaIcEEERNS0_5TokenENS0_9TokenTypeE(ptr noundef nonnull align 8 dereferenceable(269) %0, ptr noundef nonnull align 8 dereferenceable(32) %1, ptr nocapture noundef nonnull readonly align 8 dereferenceable(24) %2, i32 noundef %3) local_unnamed_addr #6 align 2 personality ptr @__gxx_personality_v0 {
  %5 = alloca %"class.Json::Reader::Token", align 8
  %6 = alloca %"class.Json::Reader::ErrorInfo", align 8
  call void @llvm.lifetime.start.p0(i64 64, ptr nonnull %6)
  %7 = getelementptr inbounds i8, ptr %6, i64 24
  call void @_ZNSt7__cxx1112basic_stringIcSt11char_traitsIcESaIcEEC1Ev(ptr noundef nonnull align 8 dereferenceable(32) %7) #25
  call void @llvm.memcpy.p0.p0.i64(ptr noundef nonnull align 8 dereferenceable(24) %6, ptr noundef nonnull align 8 dereferenceable(24) %2, i64 24, i1 false)
  %8 = invoke noundef nonnull align 8 dereferenceable(32) ptr @_ZNSt7__cxx1112basic_stringIcSt11char_traitsIcESaIcEEaSERKS4_(ptr noundef nonnull align 8 dereferenceable(32) %7, ptr noundef nonnull align 8 dereferenceable(32) %1)
          to label %9 unwind label %24

9:                                                ; preds = %4
  %10 = getelementptr inbounds i8, ptr %6, i64 56
  store ptr null, ptr %10, align 8
  %11 = getelementptr inbounds i8, ptr %0, i64 128
  %12 = load ptr, ptr %11, align 8
  %13 = getelementptr inbounds i8, ptr %0, i64 144
  %14 = load ptr, ptr %13, align 8
  %15 = getelementptr inbounds i8, ptr %14, i64 -64
  %.not.i.i = icmp eq ptr %12, %15
  br i1 %.not.i.i, label %22, label %16

16:                                               ; preds = %9
  call void @llvm.memcpy.p0.p0.i64(ptr noundef nonnull align 8 dereferenceable(24) %12, ptr noundef nonnull align 8 dereferenceable(24) %6, i64 24, i1 false)
  %17 = getelementptr inbounds i8, ptr %12, i64 24
  invoke void @_ZNSt7__cxx1112basic_stringIcSt11char_traitsIcESaIcEEC1ERKS4_(ptr noundef nonnull align 8 dereferenceable(32) %17, ptr noundef nonnull align 8 dereferenceable(32) %7)
          to label %.noexc.i unwind label %24

.noexc.i:                                         ; preds = %16
  %18 = getelementptr inbounds i8, ptr %12, i64 56
  %19 = load ptr, ptr %10, align 8
  store ptr %19, ptr %18, align 8
  %20 = load ptr, ptr %11, align 8
  %21 = getelementptr inbounds i8, ptr %20, i64 64
  store ptr %21, ptr %11, align 8
  br label %_ZN4Json6Reader8addErrorERKNSt7__cxx1112basic_stringIcSt11char_traitsIcESaIcEEERNS0_5TokenEPKc.exit

22:                                               ; preds = %9
  %23 = getelementptr inbounds i8, ptr %0, i64 80
  invoke void @_ZNSt5dequeIN4Json6Reader9ErrorInfoESaIS2_EE16_M_push_back_auxIJRKS2_EEEvDpOT_(ptr noundef nonnull align 8 dereferenceable(80) %23, ptr noundef nonnull align 8 dereferenceable(64) %6)
          to label %_ZN4Json6Reader8addErrorERKNSt7__cxx1112basic_stringIcSt11char_traitsIcESaIcEEERNS0_5TokenEPKc.exit unwind label %24

24:                                               ; preds = %22, %16, %4
  %25 = landingpad { ptr, i32 }
          cleanup
  call void @_ZNSt7__cxx1112basic_stringIcSt11char_traitsIcESaIcEED1Ev(ptr noundef nonnull align 8 dereferenceable(32) %7) #25
  resume { ptr, i32 } %25

_ZN4Json6Reader8addErrorERKNSt7__cxx1112basic_stringIcSt11char_traitsIcESaIcEEERNS0_5TokenEPKc.exit: ; preds = %.noexc.i, %22
  call void @_ZNSt7__cxx1112basic_stringIcSt11char_traitsIcESaIcEED1Ev(ptr noundef nonnull align 8 dereferenceable(32) %7) #25
  call void @llvm.lifetime.end.p0(i64 64, ptr nonnull %6)
  call void @llvm.lifetime.start.p0(i64 24, ptr nonnull %5)
  %26 = getelementptr inbounds i8, ptr %0, i64 80
  %27 = getelementptr inbounds i8, ptr %0, i64 96
  %28 = getelementptr inbounds i8, ptr %0, i64 152
  %29 = load ptr, ptr %28, align 8
  %30 = getelementptr inbounds i8, ptr %0, i64 120
  %31 = load ptr, ptr %30, align 8
  %32 = ptrtoint ptr %29 to i64
  %33 = ptrtoint ptr %31 to i64
  %34 = sub i64 %32, %33
  %35 = icmp ne ptr %29, null
  %.neg.i.i.i = sext i1 %35 to i64
  %36 = shl nsw i64 %.neg.i.i.i, 3
  %37 = add i64 %34, %36
  %38 = and i64 %37, -8
  %39 = load ptr, ptr %11, align 8
  %40 = getelementptr inbounds i8, ptr %0, i64 136
  %41 = load ptr, ptr %40, align 8
  %42 = ptrtoint ptr %39 to i64
  %43 = ptrtoint ptr %41 to i64
  %44 = sub i64 %42, %43
  %45 = ashr exact i64 %44, 6
  %46 = add nsw i64 %45, %38
  %47 = getelementptr inbounds i8, ptr %0, i64 112
  %48 = load ptr, ptr %47, align 8
  %49 = load ptr, ptr %27, align 8
  %50 = ptrtoint ptr %48 to i64
  %51 = ptrtoint ptr %49 to i64
  %52 = sub i64 %50, %51
  %53 = ashr exact i64 %52, 6
  %54 = add nsw i64 %46, %53
  br label %55

55:                                               ; preds = %58, %_ZN4Json6Reader8addErrorERKNSt7__cxx1112basic_stringIcSt11char_traitsIcESaIcEEERNS0_5TokenEPKc.exit
  %56 = call noundef zeroext i1 @_ZN4Json6Reader9readTokenERNS0_5TokenE(ptr noundef nonnull align 8 dereferenceable(269) %0, ptr noundef nonnull align 8 dereferenceable(24) %5)
  br i1 %56, label %58, label %57

57:                                               ; preds = %55
  call void @_ZNSt5dequeIN4Json6Reader9ErrorInfoESaIS2_EE6resizeEm(ptr noundef nonnull align 8 dereferenceable(80) %26, i64 noundef %54)
  br label %58

58:                                               ; preds = %57, %55
  %59 = load i32, ptr %5, align 8
  %60 = icmp eq i32 %59, %3
  %61 = icmp eq i32 %59, 0
  %or.cond.i = or i1 %60, %61
  br i1 %or.cond.i, label %_ZN4Json6Reader16recoverFromErrorENS0_9TokenTypeE.exit, label %55, !llvm.loop !122

_ZN4Json6Reader16recoverFromErrorENS0_9TokenTypeE.exit: ; preds = %58
  call void @_ZNSt5dequeIN4Json6Reader9ErrorInfoESaIS2_EE6resizeEm(ptr noundef nonnull align 8 dereferenceable(80) %26, i64 noundef %54)
  call void @llvm.lifetime.end.p0(i64 24, ptr nonnull %5)
  ret i1 false
}